; Function Attrs: mustprogress uwtable
define void @_ZN8LightGBM13DCGCalculator13CheckMetadataERKNS_8MetadataEi(ptr noundef nonnull readonly align 8 captures(none) dereferenceable(300) %0, i32 noundef %1) local_unnamed_addr #5 align 2 {
  %3 = getelementptr inbounds nuw i8, ptr %0, i64 144
  %4 = load ptr, ptr %3, align 8, !tbaa !10
  %5 = getelementptr inbounds nuw i8, ptr %0, i64 152
  %6 = load ptr, ptr %5, align 8, !tbaa !10
  %7 = icmp ne ptr %4, %6
  %8 = icmp sgt i32 %1, 0
  %9 = icmp ne ptr %4, null
  %10 = and i1 %9, %7
  %or.cond = and i1 %8, %10
  br i1 %or.cond, label %.preheader.preheader, label %.loopexit

.preheader.preheader:                             ; preds = %2
  %wide.trip.count = zext nneg i32 %1 to i64
  br label %.preheader

.preheader:                                       ; preds = %.preheader.preheader, %18
  %indvars.iv = phi i64 [ 0, %.preheader.preheader ], [ %indvars.iv.next, %18 ]
  %indvars.iv.next = add nuw nsw i64 %indvars.iv, 1
  %11 = getelementptr inbounds nuw i32, ptr %4, i64 %indvars.iv.next
  %12 = load i32, ptr %11, align 4, !tbaa !14
  %13 = getelementptr inbounds nuw i32, ptr %4, i64 %indvars.iv
  %14 = load i32, ptr %13, align 4, !tbaa !14
  %15 = sub nsw i32 %12, %14
  %16 = icmp sgt i32 %15, 10000
  br i1 %16, label %17, label %18

17:                                               ; preds = %.preheader
  tail call void (ptr, ...) @_ZN8LightGBM3Log5FatalEPKcz(ptr noundef nonnull @.str.9, i32 noundef %15, i32 noundef 10000)
  br label %18

18:                                               ; preds = %17, %.preheader
  %exitcond.not = icmp eq i64 %indvars.iv.next, %wide.trip.count
  br i1 %exitcond.not, label %.loopexit, label %.preheader, !llvm.loop !69

.loopexit:                                        ; preds = %18, %2
  ret void
}